target datalayout = "e-m:e-p270:32:32-p271:32:32-p272:64:64-i64:64-i128:128-f80:128-n8:16:32:64-S128"
target triple = "x86_64-pc-linux-gnu"

%struct.GCRef = type { i64 }
%struct.GCstr = type { %struct.GCRef, i8, i8, i8, i8, i32, i32, i32 }
%struct.MRef = type { i64 }
%struct.SBuf = type { ptr, ptr, ptr, %struct.MRef }

; Function Attrs: alwaysinline nounwind uwtable
define internal ptr @lj_buf_wmem(ptr noundef %0, ptr noundef %1, i32 noundef %2) #5 {
  %4 = alloca ptr, align 8
  %5 = alloca ptr, align 8
  %6 = alloca i32, align 4
  store ptr %0, ptr %4, align 8, !tbaa !13
  store ptr %1, ptr %5, align 8, !tbaa !22
  store i32 %2, ptr %6, align 4, !tbaa !17
  %7 = load ptr, ptr %4, align 8, !tbaa !13
  %8 = load ptr, ptr %5, align 8, !tbaa !22
  %9 = load i32, ptr %6, align 4, !tbaa !17
  %10 = zext i32 %9 to i64
  call void @llvm.memcpy.p0.p0.i64(ptr align 1 %7, ptr align 1 %8, i64 %10, i1 false)
  %11 = load i32, ptr %6, align 4, !tbaa !17
  %12 = zext i32 %11 to i64
  %13 = getelementptr inbounds nuw i8, ptr %7, i64 %12
  ret ptr %13
}

; Function Attrs: alwaysinline nounwind uwtable
define internal ptr @lj_buf_more(ptr noundef %0, i32 noundef %1) #5 {
  %3 = alloca ptr, align 8
  %4 = alloca ptr, align 8
  %5 = alloca i32, align 4
  store ptr %0, ptr %4, align 8, !tbaa !40
  store i32 %1, ptr %5, align 4, !tbaa !17
  %6 = load i32, ptr %5, align 4, !tbaa !17
  %7 = load ptr, ptr %4, align 8, !tbaa !40
  %8 = getelementptr inbounds nuw %struct.SBuf, ptr %7, i32 0, i32 1
  %9 = load ptr, ptr %8, align 8, !tbaa !48
  %10 = load ptr, ptr %4, align 8, !tbaa !40
  %11 = getelementptr inbounds nuw %struct.SBuf, ptr %10, i32 0, i32 0
  %12 = load ptr, ptr %11, align 8, !tbaa !42
  %13 = ptrtoint ptr %9 to i64
  %14 = ptrtoint ptr %12 to i64
  %15 = sub i64 %13, %14
  %16 = trunc i64 %15 to i32
  %17 = icmp ugt i32 %6, %16
  %18 = xor i1 %17, true
  %19 = xor i1 %18, true
  %20 = zext i1 %19 to i32
  %21 = sext i32 %20 to i64
  %22 = call i64 @llvm.expect.i64(i64 %21, i64 0)
  %23 = icmp ne i64 %22, 0
  br i1 %23, label %24, label %28

24:                                               ; preds = %2
  %25 = load ptr, ptr %4, align 8, !tbaa !40
  %26 = load i32, ptr %5, align 4, !tbaa !17
  %27 = call ptr @lj_buf_more2(ptr noundef %25, i32 noundef %26)
  store ptr %27, ptr %3, align 8
  br label %32

28:                                               ; preds = %2
  %29 = load ptr, ptr %4, align 8, !tbaa !40
  %30 = getelementptr inbounds nuw %struct.SBuf, ptr %29, i32 0, i32 0
  %31 = load ptr, ptr %30, align 8, !tbaa !42
  store ptr %31, ptr %3, align 8
  br label %32

32:                                               ; preds = %28, %24
  %33 = load ptr, ptr %3, align 8
  ret ptr %33
}

; Function Attrs: nounwind uwtable
define internal ptr @strfmt_putfstrlen(ptr noundef %0, i32 noundef %1, ptr noundef %2, i32 noundef %3) #0 {
  %5 = alloca ptr, align 8
  %6 = alloca i32, align 4
  %7 = alloca ptr, align 8
  %8 = alloca i32, align 4
  %9 = alloca i32, align 4
  %10 = alloca ptr, align 8
  store ptr %0, ptr %5, align 8, !tbaa !40
  store i32 %1, ptr %6, align 4, !tbaa !17
  store ptr %2, ptr %7, align 8, !tbaa !13
  store i32 %3, ptr %8, align 4, !tbaa !17
  call void @llvm.lifetime.start.p0(i64 4, ptr %9) #10
  %11 = load i32, ptr %6, align 4, !tbaa !17
  %12 = lshr i32 %11, 16
  %13 = and i32 %12, 255
  store i32 %13, ptr %9, align 4, !tbaa !17
  call void @llvm.lifetime.start.p0(i64 8, ptr %10) #10
  %14 = load i32, ptr %8, align 4, !tbaa !17
  %15 = load i32, ptr %6, align 4, !tbaa !17
  %16 = lshr i32 %15, 24
  %17 = and i32 %16, 255
  %18 = sub i32 %17, 1
  %19 = icmp ugt i32 %14, %18
  br i1 %19, label %20, label %25

20:                                               ; preds = %4
  %21 = load i32, ptr %6, align 4, !tbaa !17
  %22 = lshr i32 %21, 24
  %23 = and i32 %22, 255
  %24 = sub i32 %23, 1
  store i32 %24, ptr %8, align 4, !tbaa !17
  br label %25

25:                                               ; preds = %20, %4
  %26 = load ptr, ptr %5, align 8, !tbaa !40
  %27 = load i32, ptr %9, align 4, !tbaa !17
  %28 = load i32, ptr %8, align 4, !tbaa !17
  %29 = icmp ugt i32 %27, %28
  br i1 %29, label %30, label %32

30:                                               ; preds = %25
  %31 = load i32, ptr %9, align 4, !tbaa !17
  br label %34

32:                                               ; preds = %25
  %33 = load i32, ptr %8, align 4, !tbaa !17
  br label %34

34:                                               ; preds = %32, %30
  %35 = phi i32 [ %31, %30 ], [ %33, %32 ]
  %36 = call ptr @lj_buf_more(ptr noundef %26, i32 noundef %35)
  store ptr %36, ptr %10, align 8, !tbaa !13
  %37 = load i32, ptr %6, align 4, !tbaa !17
  %38 = and i32 %37, 256
  %39 = icmp ne i32 %38, 0
  br i1 %39, label %40, label %45

40:                                               ; preds = %34
  %41 = load ptr, ptr %10, align 8, !tbaa !13
  %42 = load ptr, ptr %7, align 8, !tbaa !13
  %43 = load i32, ptr %8, align 4, !tbaa !17
  %44 = call ptr @lj_buf_wmem(ptr noundef %41, ptr noundef %42, i32 noundef %43)
  store ptr %44, ptr %10, align 8, !tbaa !13
  br label %45

45:                                               ; preds = %40, %34
  br label %46

46:                                               ; preds = %51, %45
  %47 = load i32, ptr %9, align 4, !tbaa !17
  %48 = add i32 %47, -1
  store i32 %48, ptr %9, align 4, !tbaa !17
  %49 = load i32, ptr %8, align 4, !tbaa !17
  %50 = icmp ugt i32 %47, %49
  br i1 %50, label %51, label %54

51:                                               ; preds = %46
  %52 = load ptr, ptr %10, align 8, !tbaa !13
  %53 = getelementptr inbounds nuw i8, ptr %52, i32 1
  store ptr %53, ptr %10, align 8, !tbaa !13
  store i8 32, ptr %52, align 1, !tbaa !16
  br label %46, !llvm.loop !55

54:                                               ; preds = %46
  %55 = load i32, ptr %6, align 4, !tbaa !17
  %56 = and i32 %55, 256
  %57 = icmp ne i32 %56, 0
  br i1 %57, label %63, label %58

58:                                               ; preds = %54
  %59 = load ptr, ptr %10, align 8, !tbaa !13
  %60 = load ptr, ptr %7, align 8, !tbaa !13
  %61 = load i32, ptr %8, align 4, !tbaa !17
  %62 = call ptr @lj_buf_wmem(ptr noundef %59, ptr noundef %60, i32 noundef %61)
  store ptr %62, ptr %10, align 8, !tbaa !13
  br label %63

63:                                               ; preds = %58, %54
  %64 = load ptr, ptr %10, align 8, !tbaa !13
  %65 = load ptr, ptr %5, align 8, !tbaa !40
  %66 = getelementptr inbounds nuw %struct.SBuf, ptr %65, i32 0, i32 0
  store ptr %64, ptr %66, align 8, !tbaa !42
  %67 = load ptr, ptr %5, align 8, !tbaa !40
  call void @llvm.lifetime.end.p0(i64 8, ptr %10) #10
  call void @llvm.lifetime.end.p0(i64 4, ptr %9) #10
  ret ptr %67
}

; Function Attrs: nounwind uwtable
define hidden ptr @lj_strfmt_putfstr(ptr noundef %0, i32 noundef %1, ptr noundef %2) #0 {
  %4 = alloca ptr, align 8
  %5 = alloca i32, align 4
  %6 = alloca ptr, align 8
  store ptr %0, ptr %4, align 8, !tbaa !40
  store i32 %1, ptr %5, align 4, !tbaa !17
  store ptr %2, ptr %6, align 8, !tbaa !49
  %7 = load ptr, ptr %4, align 8, !tbaa !40
  %8 = load i32, ptr %5, align 4, !tbaa !17
  %9 = load ptr, ptr %6, align 8, !tbaa !49
  %10 = getelementptr inbounds %struct.GCstr, ptr %9, i64 1
  %11 = load ptr, ptr %6, align 8, !tbaa !49
  %12 = getelementptr inbounds nuw %struct.GCstr, ptr %11, i32 0, i32 7
  %13 = load i32, ptr %12, align 4, !tbaa !51
  %14 = call ptr @strfmt_putfstrlen(ptr noundef %7, i32 noundef %8, ptr noundef %10, i32 noundef %13)
  ret ptr %14
}