; Function Attrs: nounwind uwtable
define hidden noundef ptr @lj_strfmt_putfstr(ptr noundef returned %0, i32 noundef %1, ptr noundef readonly captures(none) %2) local_unnamed_addr #5 {
  %4 = getelementptr inbounds nuw i8, ptr %2, i64 24
  %5 = getelementptr inbounds nuw i8, ptr %2, i64 20
  %6 = load i32, ptr %5, align 4, !tbaa !37
  %7 = lshr i32 %1, 16
  %8 = and i32 %7, 255
  %9 = lshr i32 %1, 24
  %10 = add nsw i32 %9, -1
  %spec.select.i = tail call i32 @llvm.umin.i32(i32 %6, i32 %10)
  %11 = tail call i32 @llvm.umax.i32(i32 %8, i32 %spec.select.i)
  %12 = getelementptr inbounds nuw i8, ptr %0, i64 8
  %13 = load ptr, ptr %12, align 8, !tbaa !35
  %14 = load ptr, ptr %0, align 8, !tbaa !34
  %15 = ptrtoint ptr %13 to i64
  %16 = ptrtoint ptr %14 to i64
  %17 = sub i64 %15, %16
  %18 = trunc i64 %17 to i32
  %19 = icmp ugt i32 %11, %18
  br i1 %19, label %20, label %lj_buf_more.exit.i, !prof !36

20:                                               ; preds = %3
  %21 = tail call ptr @lj_buf_more2(ptr noundef nonnull %0, i32 noundef %11) #13
  br label %lj_buf_more.exit.i

lj_buf_more.exit.i:                               ; preds = %20, %3
  %.0.i.i = phi ptr [ %21, %20 ], [ %14, %3 ]
  %22 = and i32 %1, 256
  %.not.i = icmp eq i32 %22, 0
  br i1 %.not.i, label %26, label %23

23:                                               ; preds = %lj_buf_more.exit.i
  %24 = zext i32 %spec.select.i to i64
  tail call void @llvm.memcpy.p0.p0.i64(ptr align 1 %.0.i.i, ptr nonnull readonly align 1 %4, i64 %24, i1 false)
  %25 = getelementptr inbounds nuw i8, ptr %.0.i.i, i64 %24
  br label %26

26:                                               ; preds = %23, %lj_buf_more.exit.i
  %.0.i = phi ptr [ %25, %23 ], [ %.0.i.i, %lj_buf_more.exit.i ]
  %27 = icmp ugt i32 %8, %spec.select.i
  br i1 %27, label %.lr.ph.preheader.i, label %._crit_edge.i

.lr.ph.preheader.i:                               ; preds = %26
  %28 = xor i32 %spec.select.i, -1
  %29 = add nsw i32 %8, %28
  %30 = zext i32 %29 to i64
  %31 = add nuw nsw i64 %30, 1
  tail call void @llvm.memset.p0.i64(ptr noundef nonnull align 1 dereferenceable(1) %.0.i, i8 32, i64 %31, i1 false), !tbaa !13
  %scevgep.i = getelementptr i8, ptr %.0.i, i64 %31
  br label %._crit_edge.i

._crit_edge.i:                                    ; preds = %.lr.ph.preheader.i, %26
  %.1.lcssa.i = phi ptr [ %.0.i, %26 ], [ %scevgep.i, %.lr.ph.preheader.i ]
  br i1 %.not.i, label %32, label %strfmt_putfstrlen.exit

32:                                               ; preds = %._crit_edge.i
  %33 = zext i32 %spec.select.i to i64
  tail call void @llvm.memcpy.p0.p0.i64(ptr align 1 %.1.lcssa.i, ptr nonnull readonly align 1 %4, i64 %33, i1 false)
  %34 = getelementptr inbounds nuw i8, ptr %.1.lcssa.i, i64 %33
  br label %strfmt_putfstrlen.exit

strfmt_putfstrlen.exit:                           ; preds = %._crit_edge.i, %32
  %.2.i = phi ptr [ %.1.lcssa.i, %._crit_edge.i ], [ %34, %32 ]
  store ptr %.2.i, ptr %0, align 8, !tbaa !34
  ret ptr %0
}